; Function Attrs: nounwind uwtable
define internal ptr @alloc_sarray(ptr noundef %0, i32 noundef %1, i32 noundef %2, i32 noundef %3) #0 {
  %5 = getelementptr inbounds i8, ptr %0, i64 8
  %6 = load ptr, ptr %5, align 8
  %7 = icmp eq i32 %2, 0
  br i1 %7, label %.sink.split, label %8

8:                                                ; preds = %4
  %9 = udiv i32 999999976, %2
  %10 = icmp ugt i32 %2, 999999976
  br i1 %10, label %.sink.split, label %15

.sink.split:                                      ; preds = %8, %4
  %.shrunk.ph = phi i32 [ poison, %4 ], [ %9, %8 ]
  %11 = load ptr, ptr %0, align 8
  %12 = getelementptr inbounds i8, ptr %11, i64 40
  store i32 70, ptr %12, align 8
  %13 = load ptr, ptr %0, align 8
  %14 = load ptr, ptr %13, align 8
  tail call void %14(ptr noundef nonnull %0) #6
  br label %15

15:                                               ; preds = %.sink.split, %8
  %.shrunk = phi i32 [ %9, %8 ], [ %.shrunk.ph, %.sink.split ]
  %16 = zext i32 %2 to i64
  %17 = zext i32 %3 to i64
  %.041 = tail call i32 @llvm.umin.i32(i32 %.shrunk, i32 %3)
  %18 = getelementptr inbounds i8, ptr %6, i64 160
  store i32 %.041, ptr %18, align 8
  %19 = shl nuw nsw i64 %17, 3
  %20 = tail call ptr @alloc_small(ptr noundef nonnull %0, i32 noundef %1, i64 noundef %19)
  %.not55 = icmp eq i32 %3, 0
  br i1 %.not55, label %._crit_edge, label %.lr.ph54

.lr.ph54:                                         ; preds = %15
  %or.cond.i = icmp ugt i32 %1, 1
  %21 = sext i32 %1 to i64
  br label %23

.loopexit:                                        ; preds = %.lr.ph, %alloc_large.exit
  %.1.lcssa = phi i32 [ %.04053, %alloc_large.exit ], [ %65, %.lr.ph ]
  %22 = icmp ult i32 %.1.lcssa, %3
  br i1 %22, label %23, label %._crit_edge, !llvm.loop !8

23:                                               ; preds = %.lr.ph54, %.loopexit
  %.04053 = phi i32 [ 0, %.lr.ph54 ], [ %.1.lcssa, %.loopexit ]
  %.14252 = phi i32 [ %.041, %.lr.ph54 ], [ %25, %.loopexit ]
  %24 = sub i32 %3, %.04053
  %25 = tail call i32 @llvm.umin.i32(i32 %.14252, i32 %24)
  %26 = zext i32 %25 to i64
  %27 = mul nuw i64 %26, %16
  %28 = load ptr, ptr %5, align 8
  %29 = icmp ugt i64 %27, 999999976
  br i1 %29, label %30, label %37

30:                                               ; preds = %23
  %31 = load ptr, ptr %0, align 8
  %32 = getelementptr inbounds i8, ptr %31, i64 40
  store i32 54, ptr %32, align 8
  %33 = load ptr, ptr %0, align 8
  %34 = getelementptr inbounds i8, ptr %33, i64 44
  store i32 3, ptr %34, align 4
  %35 = load ptr, ptr %0, align 8
  %36 = load ptr, ptr %35, align 8
  tail call void %36(ptr noundef nonnull %0) #6
  br label %37

37:                                               ; preds = %30, %23
  %.biased.i = add nuw i64 %27, 7
  %.0.i = and i64 %.biased.i, -8
  br i1 %or.cond.i, label %38, label %45

38:                                               ; preds = %37
  %39 = load ptr, ptr %0, align 8
  %40 = getelementptr inbounds i8, ptr %39, i64 40
  store i32 14, ptr %40, align 8
  %41 = load ptr, ptr %0, align 8
  %42 = getelementptr inbounds i8, ptr %41, i64 44
  store i32 %1, ptr %42, align 4
  %43 = load ptr, ptr %0, align 8
  %44 = load ptr, ptr %43, align 8
  tail call void %44(ptr noundef nonnull %0) #6
  br label %45

45:                                               ; preds = %38, %37
  %46 = add nuw i64 %.0.i, 24
  %47 = tail call ptr @jGetLarge(ptr noundef nonnull %0, i64 noundef %46) #6
  %48 = icmp eq ptr %47, null
  br i1 %48, label %49, label %alloc_large.exit

49:                                               ; preds = %45
  %50 = load ptr, ptr %0, align 8
  %51 = getelementptr inbounds i8, ptr %50, i64 40
  store i32 54, ptr %51, align 8
  %52 = load ptr, ptr %0, align 8
  %53 = getelementptr inbounds i8, ptr %52, i64 44
  store i32 4, ptr %53, align 4
  %54 = load ptr, ptr %0, align 8
  %55 = load ptr, ptr %54, align 8
  tail call void %55(ptr noundef nonnull %0) #6
  br label %alloc_large.exit

alloc_large.exit:                                 ; preds = %45, %49
  %56 = getelementptr inbounds i8, ptr %28, i64 152
  %57 = load i64, ptr %56, align 8
  %58 = add i64 %57, %46
  store i64 %58, ptr %56, align 8
  %59 = getelementptr inbounds i8, ptr %28, i64 120
  %60 = getelementptr inbounds [2 x ptr], ptr %59, i64 0, i64 %21
  %61 = load ptr, ptr %60, align 8
  store ptr %61, ptr %47, align 8
  %62 = getelementptr inbounds i8, ptr %47, i64 8
  store i64 %.0.i, ptr %62, align 8
  %63 = getelementptr inbounds i8, ptr %47, i64 16
  store i64 0, ptr %63, align 8
  store ptr %47, ptr %60, align 8
  %.not48 = icmp eq i32 %25, 0
  br i1 %.not48, label %.loopexit, label %.lr.ph.preheader

.lr.ph.preheader:                                 ; preds = %alloc_large.exit
  %64 = getelementptr inbounds i8, ptr %47, i64 24
  br label %.lr.ph

.lr.ph:                                           ; preds = %.lr.ph.preheader, %.lr.ph
  %.051 = phi ptr [ %68, %.lr.ph ], [ %64, %.lr.ph.preheader ]
  %.03950 = phi i32 [ %69, %.lr.ph ], [ %25, %.lr.ph.preheader ]
  %.149 = phi i32 [ %65, %.lr.ph ], [ %.04053, %.lr.ph.preheader ]
  %65 = add i32 %.149, 1
  %66 = zext i32 %.149 to i64
  %67 = getelementptr inbounds ptr, ptr %20, i64 %66
  store ptr %.051, ptr %67, align 8
  %68 = getelementptr inbounds i8, ptr %.051, i64 %16
  %69 = add i32 %.03950, -1
  %.not = icmp eq i32 %69, 0
  br i1 %.not, label %.loopexit, label %.lr.ph, !llvm.loop !9

._crit_edge:                                      ; preds = %.loopexit, %15
  ret ptr %20
}